target datalayout = "e-m:e-p270:32:32-p271:32:32-p272:64:64-i64:64-i128:128-f80:128-n8:16:32:64-S128"
target triple = "x86_64-unknown-linux-gnu"

%struct.hiredisAllocFuncs = type { ptr, ptr, ptr, ptr, ptr }
%struct.redisAsyncContext = type { %struct.redisContext, i32, ptr, ptr, ptr, %struct.anon.2, ptr, ptr, ptr, %struct.redisCallbackList, ptr, i64, %struct.anon.3, ptr }
%struct.redisContext = type { ptr, i32, [128 x i8], i32, i32, ptr, ptr, i32, ptr, ptr, %struct.anon.0, %struct.anon.1, ptr, i64, ptr, ptr, ptr, ptr }
%struct.anon.0 = type { ptr, ptr, i32 }
%struct.anon.1 = type { ptr }
%struct.anon.2 = type { ptr, ptr, ptr, ptr, ptr, ptr, ptr }
%struct.redisCallbackList = type { ptr, ptr }
%struct.anon.3 = type { %struct.redisCallbackList, ptr, ptr, i32 }
%struct.redisCallback = type { ptr, ptr, i32, i32, ptr }

@hiredisAllocFns = external global %struct.hiredisAllocFuncs, align 8

; Function Attrs: nounwind uwtable
define internal void @hi_free(ptr noundef %ptr) #0 {
entry:
  %ptr.addr = alloca ptr, align 8
  store ptr %ptr, ptr %ptr.addr, align 8
  %0 = load ptr, ptr getelementptr inbounds (%struct.hiredisAllocFuncs, ptr @hiredisAllocFns, i32 0, i32 4), align 8
  %1 = load ptr, ptr %ptr.addr, align 8
  call void %0(ptr noundef %1)
  ret void
}

; Function Attrs: nounwind uwtable
define internal i32 @__redisShiftCallback(ptr noundef %list, ptr noundef %target) #0 {
entry:
  %retval = alloca i32, align 4
  %list.addr = alloca ptr, align 8
  %target.addr = alloca ptr, align 8
  %cb = alloca ptr, align 8
  store ptr %list, ptr %list.addr, align 8
  store ptr %target, ptr %target.addr, align 8
  %0 = load ptr, ptr %list.addr, align 8
  %head = getelementptr inbounds %struct.redisCallbackList, ptr %0, i32 0, i32 0
  %1 = load ptr, ptr %head, align 8
  store ptr %1, ptr %cb, align 8
  %2 = load ptr, ptr %cb, align 8
  %cmp = icmp ne ptr %2, null
  br i1 %cmp, label %if.then, label %if.end8

if.then:                                          ; preds = %entry
  %3 = load ptr, ptr %cb, align 8
  %next = getelementptr inbounds %struct.redisCallback, ptr %3, i32 0, i32 0
  %4 = load ptr, ptr %next, align 8
  %5 = load ptr, ptr %list.addr, align 8
  %head1 = getelementptr inbounds %struct.redisCallbackList, ptr %5, i32 0, i32 0
  store ptr %4, ptr %head1, align 8
  %6 = load ptr, ptr %cb, align 8
  %7 = load ptr, ptr %list.addr, align 8
  %tail = getelementptr inbounds %struct.redisCallbackList, ptr %7, i32 0, i32 1
  %8 = load ptr, ptr %tail, align 8
  %cmp2 = icmp eq ptr %6, %8
  br i1 %cmp2, label %if.then3, label %if.end

if.then3:                                         ; preds = %if.then
  %9 = load ptr, ptr %list.addr, align 8
  %tail4 = getelementptr inbounds %struct.redisCallbackList, ptr %9, i32 0, i32 1
  store ptr null, ptr %tail4, align 8
  br label %if.end

if.end:                                           ; preds = %if.then3, %if.then
  %10 = load ptr, ptr %target.addr, align 8
  %cmp5 = icmp ne ptr %10, null
  br i1 %cmp5, label %if.then6, label %if.end7

if.then6:                                         ; preds = %if.end
  %11 = load ptr, ptr %target.addr, align 8
  %12 = load ptr, ptr %cb, align 8
  call void @llvm.memcpy.p0.p0.i64(ptr align 8 %11, ptr align 8 %12, i64 32, i1 false)
  br label %if.end7

if.end7:                                          ; preds = %if.then6, %if.end
  %13 = load ptr, ptr %cb, align 8
  call void @hi_free(ptr noundef %13)
  store i32 0, ptr %retval, align 4
  br label %return

if.end8:                                          ; preds = %entry
  store i32 -1, ptr %retval, align 4
  br label %return

return:                                           ; preds = %if.end8, %if.end7
  %14 = load i32, ptr %retval, align 4
  ret i32 %14
}

; Function Attrs: nounwind uwtable
define internal void @__redisAsyncCopyError(ptr noundef %ac) #0 {
entry:
  %ac.addr = alloca ptr, align 8
  %c = alloca ptr, align 8
  store ptr %ac, ptr %ac.addr, align 8
  %0 = load ptr, ptr %ac.addr, align 8
  %tobool = icmp ne ptr %0, null
  br i1 %tobool, label %if.end, label %if.then

if.then:                                          ; preds = %entry
  br label %return

if.end:                                           ; preds = %entry
  %1 = load ptr, ptr %ac.addr, align 8
  %c1 = getelementptr inbounds %struct.redisAsyncContext, ptr %1, i32 0, i32 0
  store ptr %c1, ptr %c, align 8
  %2 = load ptr, ptr %c, align 8
  %err = getelementptr inbounds %struct.redisContext, ptr %2, i32 0, i32 1
  %3 = load i32, ptr %err, align 8
  %4 = load ptr, ptr %ac.addr, align 8
  %err2 = getelementptr inbounds %struct.redisAsyncContext, ptr %4, i32 0, i32 1
  store i32 %3, ptr %err2, align 8
  %5 = load ptr, ptr %c, align 8
  %errstr = getelementptr inbounds %struct.redisContext, ptr %5, i32 0, i32 2
  %arraydecay = getelementptr inbounds [128 x i8], ptr %errstr, i64 0, i64 0
  %6 = load ptr, ptr %ac.addr, align 8
  %errstr3 = getelementptr inbounds %struct.redisAsyncContext, ptr %6, i32 0, i32 2
  store ptr %arraydecay, ptr %errstr3, align 8
  br label %return

return:                                           ; preds = %if.end, %if.then
  ret void
}

; Function Attrs: nounwind uwtable
define void @__redisAsyncDisconnect(ptr noundef %ac) #0 {
entry:
  %ac.addr = alloca ptr, align 8
  %c = alloca ptr, align 8
  %ret = alloca i32, align 4
  store ptr %ac, ptr %ac.addr, align 8
  %0 = load ptr, ptr %ac.addr, align 8
  %c1 = getelementptr inbounds %struct.redisAsyncContext, ptr %0, i32 0, i32 0
  store ptr %c1, ptr %c, align 8
  %1 = load ptr, ptr %ac.addr, align 8
  call void @__redisAsyncCopyError(ptr noundef %1)
  %2 = load ptr, ptr %ac.addr, align 8
  %err = getelementptr inbounds %struct.redisAsyncContext, ptr %2, i32 0, i32 1
  %3 = load i32, ptr %err, align 8
  %cmp = icmp eq i32 %3, 0
  br i1 %cmp, label %if.then, label %if.else

if.then:                                          ; preds = %entry
  %4 = load ptr, ptr %ac.addr, align 8
  %replies = getelementptr inbounds %struct.redisAsyncContext, ptr %4, i32 0, i32 9
  %call = call i32 @__redisShiftCallback(ptr noundef %replies, ptr noundef null)
  store i32 %call, ptr %ret, align 4
  br label %if.end

if.else:                                          ; preds = %entry
  %5 = load ptr, ptr %c, align 8
  %flags = getelementptr inbounds %struct.redisContext, ptr %5, i32 0, i32 4
  %6 = load i32, ptr %flags, align 8
  %or = or i32 %6, 4
  store i32 %or, ptr %flags, align 8
  br label %if.end

if.end:                                           ; preds = %if.else, %if.then
  br label %do.body

do.body:                                          ; preds = %if.end
  %7 = load ptr, ptr %ac.addr, align 8
  %ev = getelementptr inbounds %struct.redisAsyncContext, ptr %7, i32 0, i32 5
  %cleanup = getelementptr inbounds %struct.anon.2, ptr %ev, i32 0, i32 5
  %8 = load ptr, ptr %cleanup, align 8
  %tobool = icmp ne ptr %8, null
  br i1 %tobool, label %if.then3, label %if.end7

if.then3:                                         ; preds = %do.body
  %9 = load ptr, ptr %ac.addr, align 8
  %ev4 = getelementptr inbounds %struct.redisAsyncContext, ptr %9, i32 0, i32 5
  %cleanup5 = getelementptr inbounds %struct.anon.2, ptr %ev4, i32 0, i32 5
  %10 = load ptr, ptr %cleanup5, align 8
  %11 = load ptr, ptr %ac.addr, align 8
  %ev6 = getelementptr inbounds %struct.redisAsyncContext, ptr %11, i32 0, i32 5
  %data = getelementptr inbounds %struct.anon.2, ptr %ev6, i32 0, i32 0
  %12 = load ptr, ptr %data, align 8
  call void %10(ptr noundef %12)
  br label %if.end7

if.end7:                                          ; preds = %if.then3, %do.body
  %13 = load ptr, ptr %ac.addr, align 8
  %ev8 = getelementptr inbounds %struct.redisAsyncContext, ptr %13, i32 0, i32 5
  %cleanup9 = getelementptr inbounds %struct.anon.2, ptr %ev8, i32 0, i32 5
  store ptr null, ptr %cleanup9, align 8
  br label %do.end

do.end:                                           ; preds = %if.end7
  %14 = load ptr, ptr %c, align 8
  %flags10 = getelementptr inbounds %struct.redisContext, ptr %14, i32 0, i32 4
  %15 = load i32, ptr %flags10, align 8
  %and = and i32 %15, 512
  %tobool11 = icmp ne i32 %and, 0
  br i1 %tobool11, label %if.end13, label %if.then12

if.then12:                                        ; preds = %do.end
  %16 = load ptr, ptr %ac.addr, align 8
  call void @__redisAsyncFree(ptr noundef %16)
  br label %if.end13

if.end13:                                         ; preds = %if.then12, %do.end
  ret void
}

; Function Attrs: nounwind uwtable
define void @redisAsyncDisconnect(ptr noundef %ac) #0 {
entry:
  %ac.addr = alloca ptr, align 8
  %c = alloca ptr, align 8
  store ptr %ac, ptr %ac.addr, align 8
  %0 = load ptr, ptr %ac.addr, align 8
  %c1 = getelementptr inbounds %struct.redisAsyncContext, ptr %0, i32 0, i32 0
  store ptr %c1, ptr %c, align 8
  %1 = load ptr, ptr %c, align 8
  %flags = getelementptr inbounds %struct.redisContext, ptr %1, i32 0, i32 4
  %2 = load i32, ptr %flags, align 8
  %or = or i32 %2, 4
  store i32 %or, ptr %flags, align 8
  %3 = load ptr, ptr %c, align 8
  %flags2 = getelementptr inbounds %struct.redisContext, ptr %3, i32 0, i32 4
  %4 = load i32, ptr %flags2, align 8
  %and = and i32 %4, -513
  store i32 %and, ptr %flags2, align 8
  %5 = load ptr, ptr %c, align 8
  %flags3 = getelementptr inbounds %struct.redisContext, ptr %5, i32 0, i32 4
  %6 = load i32, ptr %flags3, align 8
  %and4 = and i32 %6, 16
  %tobool = icmp ne i32 %and4, 0
  br i1 %tobool, label %if.end, label %land.lhs.true

land.lhs.true:                                    ; preds = %entry
  %7 = load ptr, ptr %ac.addr, align 8
  %replies = getelementptr inbounds %struct.redisAsyncContext, ptr %7, i32 0, i32 9
  %head = getelementptr inbounds %struct.redisCallbackList, ptr %replies, i32 0, i32 0
  %8 = load ptr, ptr %head, align 8
  %cmp = icmp eq ptr %8, null
  br i1 %cmp, label %if.then, label %if.end

if.then:                                          ; preds = %land.lhs.true
  %9 = load ptr, ptr %ac.addr, align 8
  call void @__redisAsyncDisconnect(ptr noundef %9)
  br label %if.end

if.end:                                           ; preds = %if.then, %land.lhs.true, %entry
  ret void
}