; Function Attrs: nounwind uwtable
define void @redisAsyncDisconnect(ptr noundef %ac) local_unnamed_addr #0 {
entry:
  %flags = getelementptr inbounds i8, ptr %ac, i64 144
  %0 = load i32, ptr %flags, align 8
  %or = and i32 %0, -517
  %and = or disjoint i32 %or, 4
  store i32 %and, ptr %flags, align 8
  %and4 = and i32 %0, 16
  %tobool.not = icmp eq i32 %and4, 0
  br i1 %tobool.not, label %land.lhs.true, label %if.end

land.lhs.true:                                    ; preds = %entry
  %replies = getelementptr inbounds i8, ptr %ac, i64 384
  %1 = load ptr, ptr %replies, align 8
  %cmp = icmp eq ptr %1, null
  br i1 %cmp, label %__redisAsyncCopyError.exit.i, label %if.end

__redisAsyncCopyError.exit.i:                     ; preds = %land.lhs.true
  %err.i.i = getelementptr inbounds i8, ptr %ac, i64 8
  %2 = load i32, ptr %err.i.i, align 8
  %err2.i.i = getelementptr inbounds i8, ptr %ac, i64 272
  store i32 %2, ptr %err2.i.i, align 8
  %errstr.i.i = getelementptr inbounds i8, ptr %ac, i64 12
  %errstr3.i.i = getelementptr inbounds i8, ptr %ac, i64 280
  store ptr %errstr.i.i, ptr %errstr3.i.i, align 8
  %cleanup.i = getelementptr inbounds i8, ptr %ac, i64 344
  %3 = load ptr, ptr %cleanup.i, align 8
  %tobool.not.i = icmp eq ptr %3, null
  br i1 %tobool.not.i, label %if.then12.i, label %if.end7.i

if.end7.i:                                        ; preds = %__redisAsyncCopyError.exit.i
  %ev.i = getelementptr inbounds i8, ptr %ac, i64 304
  %4 = load ptr, ptr %ev.i, align 8
  tail call void %3(ptr noundef %4) #14
  %.pre = load i32, ptr %flags, align 8
  %5 = and i32 %.pre, 512
  %6 = icmp eq i32 %5, 0
  store ptr null, ptr %cleanup.i, align 8
  br i1 %6, label %if.then12.i, label %if.end

if.then12.i:                                      ; preds = %__redisAsyncCopyError.exit.i, %if.end7.i
  tail call fastcc void @__redisAsyncFree(ptr noundef nonnull %ac)
  br label %if.end

if.end:                                           ; preds = %if.then12.i, %if.end7.i, %land.lhs.true, %entry
  ret void
}